target datalayout = "e-m:e-p270:32:32-p271:32:32-p272:64:64-i64:64-i128:128-f80:128-n8:16:32:64-S128"
target triple = "x86_64-pc-linux-gnu"

%"class.std::chrono::time_point" = type { %"class.std::chrono::duration.2" }
%"class.std::chrono::duration.2" = type { i64 }
%"struct.google::logging::internal::LogMessageData" = type { i32, [30001 x i8], %"class.google::LogMessage::LogStream", i32, i32, { i64, i64 }, %union.anon.27, i64, i64, i64, ptr, ptr, i8, i8, %"class.std::thread::id" }
%"class.google::LogMessage::LogStream" = type { %"class.std::basic_ostream.base", %"class.google::base_logging::LogStreamBuf", i64, ptr, %"class.std::basic_ios" }
%"class.std::basic_ostream.base" = type { ptr }
%"class.google::base_logging::LogStreamBuf" = type { %"class.std::basic_streambuf" }
%"class.std::basic_streambuf" = type { ptr, ptr, ptr, ptr, ptr, ptr, ptr, %"class.std::locale" }
%"class.std::locale" = type { ptr }
%"class.std::basic_ios" = type { %"class.std::ios_base", ptr, i8, i8, ptr, ptr, ptr, ptr }
%"class.std::ios_base" = type { ptr, i64, i64, i32, i32, i32, ptr, %"struct.std::ios_base::_Words", [8 x %"struct.std::ios_base::_Words"], i32, ptr, %"class.std::locale" }
%"struct.std::ios_base::_Words" = type { ptr, i64 }
%union.anon.27 = type { ptr }
%"class.std::thread::id" = type { i64 }
%"class.google::LogMessage" = type { ptr, ptr, %"struct.google::LogMessageTime" }
%"struct.google::LogMessageTime" = type { %struct.tm, %"class.std::chrono::time_point", %"class.std::chrono::duration.28", %"class.std::chrono::duration.29" }
%struct.tm = type { i32, i32, i32, i32, i32, i32, i32, i32, i32, i64, ptr }
%"class.std::chrono::duration.28" = type { i64 }
%"class.std::chrono::duration.29" = type { i64 }

@_ZZN6google10LogMessage18SendToSyslogAndLogEvE22openlog_already_called = internal global i8 0, align 1
@__const._ZN6google10LogMessage18SendToSyslogAndLogEv.SEVERITY_TO_LEVEL = private unnamed_addr constant [4 x i32] [i32 6, i32 4, i32 3, i32 0], align 16
@.str.23 = private unnamed_addr constant [5 x i8] c"%.*s\00", align 1

; Function Attrs: mustprogress uwtable
define void @_ZN6google10LogMessage18SendToSyslogAndLogEv(ptr noundef nonnull align 8 dereferenceable(96) %0) #0 align 2 {
  %2 = alloca ptr, align 8
  %3 = alloca [4 x i32], align 16
  store ptr %0, ptr %2, align 8, !tbaa !128
  %4 = load ptr, ptr %2, align 8
  %5 = load i8, ptr @_ZZN6google10LogMessage18SendToSyslogAndLogEvE22openlog_already_called, align 1, !tbaa !76, !range !78, !noundef !79
  %6 = trunc i8 %5 to i1
  br i1 %6, label %9, label %7

7:                                                ; preds = %1
  %8 = call noundef ptr @_ZN6google24glog_internal_namespace_26ProgramInvocationShortNameEv()
  call void @openlog(ptr noundef %8, i32 noundef 11, i32 noundef 8)
  store i8 1, ptr @_ZZN6google10LogMessage18SendToSyslogAndLogEvE22openlog_already_called, align 1, !tbaa !76
  br label %9

9:                                                ; preds = %7, %1
  call void @llvm.lifetime.start.p0(i64 16, ptr %3) #5
  call void @llvm.memcpy.p0.p0.i64(ptr align 16 %3, ptr align 16 @__const._ZN6google10LogMessage18SendToSyslogAndLogEv.SEVERITY_TO_LEVEL, i64 16, i1 false)
  %10 = getelementptr inbounds nuw %"class.google::LogMessage", ptr %4, i32 0, i32 1
  %11 = load ptr, ptr %10, align 8, !tbaa !136
  %12 = getelementptr inbounds nuw %"struct.google::logging::internal::LogMessageData", ptr %11, i32 0, i32 3
  %13 = load i32, ptr %12, align 8, !tbaa !140
  %14 = sext i32 %13 to i64
  %15 = getelementptr inbounds [4 x i32], ptr %3, i64 0, i64 %14
  %16 = load i32, ptr %15, align 4, !tbaa !11
  %17 = or i32 8, %16
  %18 = getelementptr inbounds nuw %"class.google::LogMessage", ptr %4, i32 0, i32 1
  %19 = load ptr, ptr %18, align 8, !tbaa !136
  %20 = getelementptr inbounds nuw %"struct.google::logging::internal::LogMessageData", ptr %19, i32 0, i32 9
  %21 = load i64, ptr %20, align 8, !tbaa !146
  %22 = trunc i64 %21 to i32
  %23 = getelementptr inbounds nuw %"class.google::LogMessage", ptr %4, i32 0, i32 1
  %24 = load ptr, ptr %23, align 8, !tbaa !136
  %25 = getelementptr inbounds nuw %"struct.google::logging::internal::LogMessageData", ptr %24, i32 0, i32 1
  %26 = getelementptr inbounds [30001 x i8], ptr %25, i64 0, i64 0
  %27 = getelementptr inbounds nuw %"class.google::LogMessage", ptr %4, i32 0, i32 1
  %28 = load ptr, ptr %27, align 8, !tbaa !136
  %29 = getelementptr inbounds nuw %"struct.google::logging::internal::LogMessageData", ptr %28, i32 0, i32 7
  %30 = load i64, ptr %29, align 8, !tbaa !150
  %31 = getelementptr inbounds nuw i8, ptr %26, i64 %30
  call void (i32, ptr, ...) @syslog(i32 noundef %17, ptr noundef @.str.23, i32 noundef %22, ptr noundef %31)
  call void @_ZN6google10LogMessage9SendToLogEv(ptr noundef nonnull align 8 dereferenceable(96) %4)
  call void @llvm.lifetime.end.p0(i64 16, ptr %3) #5
  ret void
}