; Function Attrs: mustprogress uwtable
define void @_ZN6google10LogMessage18SendToSyslogAndLogEv(ptr noundef nonnull align 8 dereferenceable(96) %0) local_unnamed_addr #0 align 2 {
  %.b1 = load i1, ptr @_ZZN6google10LogMessage18SendToSyslogAndLogEvE22openlog_already_called, align 1
  br i1 %.b1, label %4, label %2

2:                                                ; preds = %1
  %3 = tail call noundef ptr @_ZN6google24glog_internal_namespace_26ProgramInvocationShortNameEv()
  tail call void @openlog(ptr noundef %3, i32 noundef 11, i32 noundef 8)
  store i1 true, ptr @_ZZN6google10LogMessage18SendToSyslogAndLogEvE22openlog_already_called, align 1
  br label %4

4:                                                ; preds = %2, %1
  %5 = getelementptr inbounds nuw i8, ptr %0, i64 8
  %6 = load ptr, ptr %5, align 8, !tbaa !91
  %7 = getelementptr inbounds nuw i8, ptr %6, i64 30360
  %8 = load i32, ptr %7, align 8, !tbaa !99
  %9 = sext i32 %8 to i64
  %10 = getelementptr inbounds [4 x i32], ptr @__const._ZN6google10LogMessage18SendToSyslogAndLogEv.SEVERITY_TO_LEVEL, i64 0, i64 %9
  %11 = load i32, ptr %10, align 4, !tbaa !97
  %12 = or i32 %11, 8
  %13 = getelementptr inbounds nuw i8, ptr %6, i64 30408
  %14 = load i64, ptr %13, align 8, !tbaa !144
  %15 = trunc i64 %14 to i32
  %16 = getelementptr inbounds nuw i8, ptr %6, i64 4
  %17 = getelementptr inbounds nuw i8, ptr %6, i64 30392
  %18 = load i64, ptr %17, align 8, !tbaa !125
  %19 = getelementptr inbounds nuw i8, ptr %16, i64 %18
  tail call void (i32, ptr, ...) @syslog(i32 noundef %12, ptr noundef nonnull @.str.23, i32 noundef %15, ptr noundef nonnull %19)
  tail call void @_ZN6google10LogMessage9SendToLogEv(ptr noundef nonnull align 8 dereferenceable(96) %0)
  ret void
}